; Function Attrs: mustprogress uwtable
define void @_ZN6casadi11GetNonzeros6createERKNS_8SparsityERKNS_2MXERKNS_5SliceES9_(ptr dead_on_unwind noalias writable sret(%"class.casadi::MX") align 8 %0, ptr noundef nonnull align 8 dereferenceable(8) %1, ptr noundef nonnull align 8 dereferenceable(8) %2, ptr nocapture noundef nonnull readonly align 8 dereferenceable(24) %3, ptr nocapture noundef nonnull readonly align 8 dereferenceable(24) %4) local_unnamed_addr #3 align 2 personality ptr @__gxx_personality_v0 {
  %6 = tail call noalias noundef nonnull dereferenceable(112) ptr @_Znwm(i64 noundef 112) #21
  invoke void @_ZN6casadi6MXNodeC2Ev(ptr noundef nonnull align 8 dereferenceable(64) %6)
          to label %.noexc unwind label %13

.noexc:                                           ; preds = %5
  store ptr getelementptr inbounds ({ [109 x ptr] }, ptr @_ZTVN6casadi11GetNonzerosE, i64 0, i32 0, i64 2), ptr %6, align 8
  invoke void @_ZN6casadi6MXNode12set_sparsityERKNS_8SparsityE(ptr noundef nonnull align 8 dereferenceable(64) %6, ptr noundef nonnull align 8 dereferenceable(8) %1)
          to label %7 unwind label %8

7:                                                ; preds = %.noexc
  invoke void @_ZN6casadi6MXNode7set_depERKNS_2MXE(ptr noundef nonnull align 8 dereferenceable(64) %6, ptr noundef nonnull align 8 dereferenceable(8) %2)
          to label %10 unwind label %8

8:                                                ; preds = %7, %.noexc
  %9 = landingpad { ptr, i32 }
          cleanup
  tail call void @_ZN6casadi6MXNodeD2Ev(ptr noundef nonnull align 8 dereferenceable(64) %6) #22
  br label %.body

10:                                               ; preds = %7
  store ptr getelementptr inbounds ({ [109 x ptr] }, ptr @_ZTVN6casadi17GetNonzerosSlice2E, i64 0, i32 0, i64 2), ptr %6, align 8
  %11 = getelementptr inbounds i8, ptr %6, i64 64
  tail call void @llvm.memcpy.p0.p0.i64(ptr noundef nonnull align 8 dereferenceable(24) %11, ptr noundef nonnull align 8 dereferenceable(24) %3, i64 24, i1 false)
  %12 = getelementptr inbounds i8, ptr %6, i64 88
  tail call void @llvm.memcpy.p0.p0.i64(ptr noundef nonnull align 8 dereferenceable(24) %12, ptr noundef nonnull align 8 dereferenceable(24) %4, i64 24, i1 false)
  tail call void @_ZN6casadi2MX6createEPNS_6MXNodeE(ptr dead_on_unwind writable sret(%"class.casadi::MX") align 8 %0, ptr noundef nonnull %6)
  ret void

13:                                               ; preds = %5
  %14 = landingpad { ptr, i32 }
          cleanup
  br label %.body

.body:                                            ; preds = %8, %13
  %eh.lpad-body = phi { ptr, i32 } [ %14, %13 ], [ %9, %8 ]
  tail call void @_ZdlPv(ptr noundef nonnull %6) #23
  resume { ptr, i32 } %eh.lpad-body
}